target datalayout = "e-m:e-p270:32:32-p271:32:32-p272:64:64-i64:64-i128:128-f80:128-n8:16:32:64-S128"
target triple = "x86_64-pc-linux-gnu"

%struct.ec_group_st = type { ptr, ptr, %struct.bignum_st, %struct.bignum_st, i32, ptr, %struct.bignum_st, %struct.bignum_st, %struct.bignum_st, i32, ptr, %struct.bignum_st }
%struct.bignum_st = type { ptr, i32, i32, i32, i32 }
%struct.ec_method_st = type { ptr, ptr, ptr, ptr, ptr, ptr, ptr, ptr, ptr, ptr, ptr }
%struct.ec_point_st = type { ptr, %struct.bignum_st, %struct.bignum_st, %struct.bignum_st }

; Function Attrs: nounwind uwtable
define hidden i32 @ec_GFp_simple_cmp(ptr noundef %0, ptr noundef %1, ptr noundef %2, ptr noundef %3) #0 {
  %5 = alloca i32, align 4
  %6 = alloca ptr, align 8
  %7 = alloca ptr, align 8
  %8 = alloca ptr, align 8
  %9 = alloca ptr, align 8
  %10 = alloca ptr, align 8
  %11 = alloca ptr, align 8
  %12 = alloca ptr, align 8
  %13 = alloca ptr, align 8
  %14 = alloca ptr, align 8
  %15 = alloca ptr, align 8
  %16 = alloca ptr, align 8
  %17 = alloca ptr, align 8
  %18 = alloca ptr, align 8
  %19 = alloca i32, align 4
  %20 = alloca i32, align 4
  %21 = alloca i32, align 4
  %22 = alloca i32, align 4
  store ptr %0, ptr %6, align 8, !tbaa !6
  store ptr %1, ptr %7, align 8, !tbaa !28
  store ptr %2, ptr %8, align 8, !tbaa !28
  store ptr %3, ptr %9, align 8, !tbaa !21
  call void @llvm.lifetime.start.p0(i64 8, ptr %10) #6
  call void @llvm.lifetime.start.p0(i64 8, ptr %11) #6
  call void @llvm.lifetime.start.p0(i64 8, ptr %12) #6
  store ptr null, ptr %12, align 8, !tbaa !21
  call void @llvm.lifetime.start.p0(i64 8, ptr %13) #6
  call void @llvm.lifetime.start.p0(i64 8, ptr %14) #6
  call void @llvm.lifetime.start.p0(i64 8, ptr %15) #6
  call void @llvm.lifetime.start.p0(i64 8, ptr %16) #6
  call void @llvm.lifetime.start.p0(i64 8, ptr %17) #6
  call void @llvm.lifetime.start.p0(i64 8, ptr %18) #6
  call void @llvm.lifetime.start.p0(i64 4, ptr %19) #6
  store i32 -1, ptr %19, align 4, !tbaa !23
  %23 = load ptr, ptr %6, align 8, !tbaa !6
  %24 = load ptr, ptr %7, align 8, !tbaa !28
  %25 = call i32 @EC_POINT_is_at_infinity(ptr noundef %23, ptr noundef %24)
  %26 = icmp ne i32 %25, 0
  br i1 %26, label %27, label %33

27:                                               ; preds = %4
  %28 = load ptr, ptr %6, align 8, !tbaa !6
  %29 = load ptr, ptr %8, align 8, !tbaa !28
  %30 = call i32 @EC_POINT_is_at_infinity(ptr noundef %28, ptr noundef %29)
  %31 = icmp ne i32 %30, 0
  %32 = select i1 %31, i32 0, i32 1
  store i32 %32, ptr %5, align 4
  store i32 1, ptr %20, align 4
  br label %238

33:                                               ; preds = %4
  %34 = load ptr, ptr %6, align 8, !tbaa !6
  %35 = load ptr, ptr %8, align 8, !tbaa !28
  %36 = call i32 @EC_POINT_is_at_infinity(ptr noundef %34, ptr noundef %35)
  %37 = icmp ne i32 %36, 0
  br i1 %37, label %38, label %39

38:                                               ; preds = %33
  store i32 1, ptr %5, align 4
  store i32 1, ptr %20, align 4
  br label %238

39:                                               ; preds = %33
  call void @llvm.lifetime.start.p0(i64 4, ptr %21) #6
  %40 = load ptr, ptr %7, align 8, !tbaa !28
  %41 = getelementptr inbounds nuw %struct.ec_point_st, ptr %40, i32 0, i32 3
  %42 = load ptr, ptr %6, align 8, !tbaa !6
  %43 = getelementptr inbounds nuw %struct.ec_group_st, ptr %42, i32 0, i32 11
  %44 = call i32 @BN_cmp(ptr noundef %41, ptr noundef %43)
  %45 = icmp eq i32 %44, 0
  %46 = zext i1 %45 to i32
  store i32 %46, ptr %21, align 4, !tbaa !23
  call void @llvm.lifetime.start.p0(i64 4, ptr %22) #6
  %47 = load ptr, ptr %8, align 8, !tbaa !28
  %48 = getelementptr inbounds nuw %struct.ec_point_st, ptr %47, i32 0, i32 3
  %49 = load ptr, ptr %6, align 8, !tbaa !6
  %50 = getelementptr inbounds nuw %struct.ec_group_st, ptr %49, i32 0, i32 11
  %51 = call i32 @BN_cmp(ptr noundef %48, ptr noundef %50)
  %52 = icmp eq i32 %51, 0
  %53 = zext i1 %52 to i32
  store i32 %53, ptr %22, align 4, !tbaa !23
  %54 = load i32, ptr %21, align 4, !tbaa !23
  %55 = icmp ne i32 %54, 0
  br i1 %55, label %56, label %76

56:                                               ; preds = %39
  %57 = load i32, ptr %22, align 4, !tbaa !23
  %58 = icmp ne i32 %57, 0
  br i1 %58, label %59, label %76

59:                                               ; preds = %56
  %60 = load ptr, ptr %7, align 8, !tbaa !28
  %61 = getelementptr inbounds nuw %struct.ec_point_st, ptr %60, i32 0, i32 1
  %62 = load ptr, ptr %8, align 8, !tbaa !28
  %63 = getelementptr inbounds nuw %struct.ec_point_st, ptr %62, i32 0, i32 1
  %64 = call i32 @BN_cmp(ptr noundef %61, ptr noundef %63)
  %65 = icmp eq i32 %64, 0
  br i1 %65, label %66, label %73

66:                                               ; preds = %59
  %67 = load ptr, ptr %7, align 8, !tbaa !28
  %68 = getelementptr inbounds nuw %struct.ec_point_st, ptr %67, i32 0, i32 2
  %69 = load ptr, ptr %8, align 8, !tbaa !28
  %70 = getelementptr inbounds nuw %struct.ec_point_st, ptr %69, i32 0, i32 2
  %71 = call i32 @BN_cmp(ptr noundef %68, ptr noundef %70)
  %72 = icmp eq i32 %71, 0
  br label %73

73:                                               ; preds = %66, %59
  %74 = phi i1 [ false, %59 ], [ %72, %66 ]
  %75 = select i1 %74, i32 0, i32 1
  store i32 %75, ptr %5, align 4
  store i32 1, ptr %20, align 4
  br label %237

76:                                               ; preds = %56, %39
  %77 = load ptr, ptr %6, align 8, !tbaa !6
  %78 = getelementptr inbounds nuw %struct.ec_group_st, ptr %77, i32 0, i32 0
  %79 = load ptr, ptr %78, align 8, !tbaa !24
  %80 = getelementptr inbounds nuw %struct.ec_method_st, ptr %79, i32 0, i32 7
  %81 = load ptr, ptr %80, align 8, !tbaa !29
  store ptr %81, ptr %10, align 8, !tbaa !30
  %82 = load ptr, ptr %6, align 8, !tbaa !6
  %83 = getelementptr inbounds nuw %struct.ec_group_st, ptr %82, i32 0, i32 0
  %84 = load ptr, ptr %83, align 8, !tbaa !24
  %85 = getelementptr inbounds nuw %struct.ec_method_st, ptr %84, i32 0, i32 8
  %86 = load ptr, ptr %85, align 8, !tbaa !31
  store ptr %86, ptr %11, align 8, !tbaa !30
  %87 = load ptr, ptr %9, align 8, !tbaa !21
  %88 = icmp eq ptr %87, null
  br i1 %88, label %89, label %95

89:                                               ; preds = %76
  %90 = call ptr @BN_CTX_new()
  store ptr %90, ptr %12, align 8, !tbaa !21
  store ptr %90, ptr %9, align 8, !tbaa !21
  %91 = load ptr, ptr %9, align 8, !tbaa !21
  %92 = icmp eq ptr %91, null
  br i1 %92, label %93, label %94

93:                                               ; preds = %89
  store i32 -1, ptr %5, align 4
  store i32 1, ptr %20, align 4
  br label %237

94:                                               ; preds = %89
  br label %95

95:                                               ; preds = %94, %76
  %96 = load ptr, ptr %9, align 8, !tbaa !21
  call void @BN_CTX_start(ptr noundef %96)
  %97 = load ptr, ptr %9, align 8, !tbaa !21
  %98 = call ptr @BN_CTX_get(ptr noundef %97)
  store ptr %98, ptr %13, align 8, !tbaa !19
  %99 = load ptr, ptr %9, align 8, !tbaa !21
  %100 = call ptr @BN_CTX_get(ptr noundef %99)
  store ptr %100, ptr %14, align 8, !tbaa !19
  %101 = load ptr, ptr %9, align 8, !tbaa !21
  %102 = call ptr @BN_CTX_get(ptr noundef %101)
  store ptr %102, ptr %15, align 8, !tbaa !19
  %103 = load ptr, ptr %9, align 8, !tbaa !21
  %104 = call ptr @BN_CTX_get(ptr noundef %103)
  store ptr %104, ptr %16, align 8, !tbaa !19
  %105 = load ptr, ptr %16, align 8, !tbaa !19
  %106 = icmp eq ptr %105, null
  br i1 %106, label %107, label %108

107:                                              ; preds = %95
  br label %233

108:                                              ; preds = %95
  %109 = load i32, ptr %22, align 4, !tbaa !23
  %110 = icmp ne i32 %109, 0
  br i1 %110, label %133, label %111

111:                                              ; preds = %108
  %112 = load ptr, ptr %11, align 8, !tbaa !30
  %113 = load ptr, ptr %6, align 8, !tbaa !6
  %114 = load ptr, ptr %16, align 8, !tbaa !19
  %115 = load ptr, ptr %8, align 8, !tbaa !28
  %116 = getelementptr inbounds nuw %struct.ec_point_st, ptr %115, i32 0, i32 3
  %117 = load ptr, ptr %9, align 8, !tbaa !21
  %118 = call i32 %112(ptr noundef %113, ptr noundef %114, ptr noundef %116, ptr noundef %117)
  %119 = icmp ne i32 %118, 0
  br i1 %119, label %120, label %130

120:                                              ; preds = %111
  %121 = load ptr, ptr %10, align 8, !tbaa !30
  %122 = load ptr, ptr %6, align 8, !tbaa !6
  %123 = load ptr, ptr %13, align 8, !tbaa !19
  %124 = load ptr, ptr %7, align 8, !tbaa !28
  %125 = getelementptr inbounds nuw %struct.ec_point_st, ptr %124, i32 0, i32 1
  %126 = load ptr, ptr %16, align 8, !tbaa !19
  %127 = load ptr, ptr %9, align 8, !tbaa !21
  %128 = call i32 %121(ptr noundef %122, ptr noundef %123, ptr noundef %125, ptr noundef %126, ptr noundef %127)
  %129 = icmp ne i32 %128, 0
  br i1 %129, label %131, label %130

130:                                              ; preds = %120, %111
  br label %233

131:                                              ; preds = %120
  %132 = load ptr, ptr %13, align 8, !tbaa !19
  store ptr %132, ptr %17, align 8, !tbaa !19
  br label %136

133:                                              ; preds = %108
  %134 = load ptr, ptr %7, align 8, !tbaa !28
  %135 = getelementptr inbounds nuw %struct.ec_point_st, ptr %134, i32 0, i32 1
  store ptr %135, ptr %17, align 8, !tbaa !19
  br label %136

136:                                              ; preds = %133, %131
  %137 = load i32, ptr %21, align 4, !tbaa !23
  %138 = icmp ne i32 %137, 0
  br i1 %138, label %161, label %139

139:                                              ; preds = %136
  %140 = load ptr, ptr %11, align 8, !tbaa !30
  %141 = load ptr, ptr %6, align 8, !tbaa !6
  %142 = load ptr, ptr %15, align 8, !tbaa !19
  %143 = load ptr, ptr %7, align 8, !tbaa !28
  %144 = getelementptr inbounds nuw %struct.ec_point_st, ptr %143, i32 0, i32 3
  %145 = load ptr, ptr %9, align 8, !tbaa !21
  %146 = call i32 %140(ptr noundef %141, ptr noundef %142, ptr noundef %144, ptr noundef %145)
  %147 = icmp ne i32 %146, 0
  br i1 %147, label %148, label %158

148:                                              ; preds = %139
  %149 = load ptr, ptr %10, align 8, !tbaa !30
  %150 = load ptr, ptr %6, align 8, !tbaa !6
  %151 = load ptr, ptr %14, align 8, !tbaa !19
  %152 = load ptr, ptr %8, align 8, !tbaa !28
  %153 = getelementptr inbounds nuw %struct.ec_point_st, ptr %152, i32 0, i32 1
  %154 = load ptr, ptr %15, align 8, !tbaa !19
  %155 = load ptr, ptr %9, align 8, !tbaa !21
  %156 = call i32 %149(ptr noundef %150, ptr noundef %151, ptr noundef %153, ptr noundef %154, ptr noundef %155)
  %157 = icmp ne i32 %156, 0
  br i1 %157, label %159, label %158

158:                                              ; preds = %148, %139
  br label %233

159:                                              ; preds = %148
  %160 = load ptr, ptr %14, align 8, !tbaa !19
  store ptr %160, ptr %18, align 8, !tbaa !19
  br label %164

161:                                              ; preds = %136
  %162 = load ptr, ptr %8, align 8, !tbaa !28
  %163 = getelementptr inbounds nuw %struct.ec_point_st, ptr %162, i32 0, i32 1
  store ptr %163, ptr %18, align 8, !tbaa !19
  br label %164

164:                                              ; preds = %161, %159
  %165 = load ptr, ptr %17, align 8, !tbaa !19
  %166 = load ptr, ptr %18, align 8, !tbaa !19
  %167 = call i32 @BN_cmp(ptr noundef %165, ptr noundef %166)
  %168 = icmp ne i32 %167, 0
  br i1 %168, label %169, label %170

169:                                              ; preds = %164
  store i32 1, ptr %19, align 4, !tbaa !23
  br label %233

170:                                              ; preds = %164
  %171 = load i32, ptr %22, align 4, !tbaa !23
  %172 = icmp ne i32 %171, 0
  br i1 %172, label %195, label %173

173:                                              ; preds = %170
  %174 = load ptr, ptr %10, align 8, !tbaa !30
  %175 = load ptr, ptr %6, align 8, !tbaa !6
  %176 = load ptr, ptr %16, align 8, !tbaa !19
  %177 = load ptr, ptr %16, align 8, !tbaa !19
  %178 = load ptr, ptr %8, align 8, !tbaa !28
  %179 = getelementptr inbounds nuw %struct.ec_point_st, ptr %178, i32 0, i32 3
  %180 = load ptr, ptr %9, align 8, !tbaa !21
  %181 = call i32 %174(ptr noundef %175, ptr noundef %176, ptr noundef %177, ptr noundef %179, ptr noundef %180)
  %182 = icmp ne i32 %181, 0
  br i1 %182, label %183, label %193

183:                                              ; preds = %173
  %184 = load ptr, ptr %10, align 8, !tbaa !30
  %185 = load ptr, ptr %6, align 8, !tbaa !6
  %186 = load ptr, ptr %13, align 8, !tbaa !19
  %187 = load ptr, ptr %7, align 8, !tbaa !28
  %188 = getelementptr inbounds nuw %struct.ec_point_st, ptr %187, i32 0, i32 2
  %189 = load ptr, ptr %16, align 8, !tbaa !19
  %190 = load ptr, ptr %9, align 8, !tbaa !21
  %191 = call i32 %184(ptr noundef %185, ptr noundef %186, ptr noundef %188, ptr noundef %189, ptr noundef %190)
  %192 = icmp ne i32 %191, 0
  br i1 %192, label %194, label %193

193:                                              ; preds = %183, %173
  br label %233

194:                                              ; preds = %183
  br label %198

195:                                              ; preds = %170
  %196 = load ptr, ptr %7, align 8, !tbaa !28
  %197 = getelementptr inbounds nuw %struct.ec_point_st, ptr %196, i32 0, i32 2
  store ptr %197, ptr %17, align 8, !tbaa !19
  br label %198

198:                                              ; preds = %195, %194
  %199 = load i32, ptr %21, align 4, !tbaa !23
  %200 = icmp ne i32 %199, 0
  br i1 %200, label %223, label %201

201:                                              ; preds = %198
  %202 = load ptr, ptr %10, align 8, !tbaa !30
  %203 = load ptr, ptr %6, align 8, !tbaa !6
  %204 = load ptr, ptr %15, align 8, !tbaa !19
  %205 = load ptr, ptr %15, align 8, !tbaa !19
  %206 = load ptr, ptr %7, align 8, !tbaa !28
  %207 = getelementptr inbounds nuw %struct.ec_point_st, ptr %206, i32 0, i32 3
  %208 = load ptr, ptr %9, align 8, !tbaa !21
  %209 = call i32 %202(ptr noundef %203, ptr noundef %204, ptr noundef %205, ptr noundef %207, ptr noundef %208)
  %210 = icmp ne i32 %209, 0
  br i1 %210, label %211, label %221

211:                                              ; preds = %201
  %212 = load ptr, ptr %10, align 8, !tbaa !30
  %213 = load ptr, ptr %6, align 8, !tbaa !6
  %214 = load ptr, ptr %14, align 8, !tbaa !19
  %215 = load ptr, ptr %8, align 8, !tbaa !28
  %216 = getelementptr inbounds nuw %struct.ec_point_st, ptr %215, i32 0, i32 2
  %217 = load ptr, ptr %15, align 8, !tbaa !19
  %218 = load ptr, ptr %9, align 8, !tbaa !21
  %219 = call i32 %212(ptr noundef %213, ptr noundef %214, ptr noundef %216, ptr noundef %217, ptr noundef %218)
  %220 = icmp ne i32 %219, 0
  br i1 %220, label %222, label %221

221:                                              ; preds = %211, %201
  br label %233

222:                                              ; preds = %211
  br label %226

223:                                              ; preds = %198
  %224 = load ptr, ptr %8, align 8, !tbaa !28
  %225 = getelementptr inbounds nuw %struct.ec_point_st, ptr %224, i32 0, i32 2
  store ptr %225, ptr %18, align 8, !tbaa !19
  br label %226

226:                                              ; preds = %223, %222
  %227 = load ptr, ptr %17, align 8, !tbaa !19
  %228 = load ptr, ptr %18, align 8, !tbaa !19
  %229 = call i32 @BN_cmp(ptr noundef %227, ptr noundef %228)
  %230 = icmp ne i32 %229, 0
  br i1 %230, label %231, label %232

231:                                              ; preds = %226
  store i32 1, ptr %19, align 4, !tbaa !23
  br label %233

232:                                              ; preds = %226
  store i32 0, ptr %19, align 4, !tbaa !23
  br label %233

233:                                              ; preds = %232, %231, %221, %193, %169, %158, %130, %107
  %234 = load ptr, ptr %9, align 8, !tbaa !21
  call void @BN_CTX_end(ptr noundef %234)
  %235 = load ptr, ptr %12, align 8, !tbaa !21
  call void @BN_CTX_free(ptr noundef %235)
  %236 = load i32, ptr %19, align 4, !tbaa !23
  store i32 %236, ptr %5, align 4
  store i32 1, ptr %20, align 4
  br label %237

237:                                              ; preds = %233, %93, %73
  call void @llvm.lifetime.end.p0(i64 4, ptr %22) #6
  call void @llvm.lifetime.end.p0(i64 4, ptr %21) #6
  br label %238

238:                                              ; preds = %237, %38, %27
  call void @llvm.lifetime.end.p0(i64 4, ptr %19) #6
  call void @llvm.lifetime.end.p0(i64 8, ptr %18) #6
  call void @llvm.lifetime.end.p0(i64 8, ptr %17) #6
  call void @llvm.lifetime.end.p0(i64 8, ptr %16) #6
  call void @llvm.lifetime.end.p0(i64 8, ptr %15) #6
  call void @llvm.lifetime.end.p0(i64 8, ptr %14) #6
  call void @llvm.lifetime.end.p0(i64 8, ptr %13) #6
  call void @llvm.lifetime.end.p0(i64 8, ptr %12) #6
  call void @llvm.lifetime.end.p0(i64 8, ptr %11) #6
  call void @llvm.lifetime.end.p0(i64 8, ptr %10) #6
  %239 = load i32, ptr %5, align 4
  ret i32 %239
}