; Function Attrs: nounwind uwtable
define hidden range(i32 -1, 2) i32 @ec_GFp_simple_cmp(ptr noundef %0, ptr noundef %1, ptr noundef %2, ptr noundef %3) local_unnamed_addr #0 {
  %5 = tail call i32 @EC_POINT_is_at_infinity(ptr noundef %0, ptr noundef %1) #5
  %.not = icmp eq i32 %5, 0
  %6 = tail call i32 @EC_POINT_is_at_infinity(ptr noundef %0, ptr noundef %2) #5
  %.not100 = icmp eq i32 %6, 0
  br i1 %.not, label %9, label %7

7:                                                ; preds = %4
  %8 = zext i1 %.not100 to i32
  br label %82

9:                                                ; preds = %4
  br i1 %.not100, label %10, label %82

10:                                               ; preds = %9
  %11 = getelementptr inbounds nuw i8, ptr %1, i64 56
  %12 = getelementptr inbounds nuw i8, ptr %0, i64 168
  %13 = tail call i32 @BN_cmp(ptr noundef nonnull %11, ptr noundef nonnull %12) #5
  %14 = icmp eq i32 %13, 0
  %15 = getelementptr inbounds nuw i8, ptr %2, i64 56
  %16 = tail call i32 @BN_cmp(ptr noundef nonnull %15, ptr noundef nonnull %12) #5
  %17 = icmp eq i32 %16, 0
  %or.cond = select i1 %14, i1 %17, i1 false
  br i1 %or.cond, label %18, label %29

18:                                               ; preds = %10
  %19 = getelementptr inbounds nuw i8, ptr %1, i64 8
  %20 = getelementptr inbounds nuw i8, ptr %2, i64 8
  %21 = tail call i32 @BN_cmp(ptr noundef nonnull %19, ptr noundef nonnull %20) #5
  %22 = icmp eq i32 %21, 0
  br i1 %22, label %23, label %82

23:                                               ; preds = %18
  %24 = getelementptr inbounds nuw i8, ptr %1, i64 32
  %25 = getelementptr inbounds nuw i8, ptr %2, i64 32
  %26 = tail call i32 @BN_cmp(ptr noundef nonnull %24, ptr noundef nonnull %25) #5
  %27 = icmp ne i32 %26, 0
  %28 = zext i1 %27 to i32
  br label %82

29:                                               ; preds = %10
  %30 = load ptr, ptr %0, align 8, !tbaa !17
  %31 = getelementptr inbounds nuw i8, ptr %30, i64 56
  %32 = load ptr, ptr %31, align 8, !tbaa !21
  %33 = getelementptr inbounds nuw i8, ptr %30, i64 64
  %34 = load ptr, ptr %33, align 8, !tbaa !22
  %35 = icmp eq ptr %3, null
  br i1 %35, label %36, label %39

36:                                               ; preds = %29
  %37 = tail call ptr @BN_CTX_new() #5
  %38 = icmp eq ptr %37, null
  br i1 %38, label %82, label %39

39:                                               ; preds = %36, %29
  %.096 = phi ptr [ %37, %36 ], [ null, %29 ]
  %.090 = phi ptr [ %37, %36 ], [ %3, %29 ]
  tail call void @BN_CTX_start(ptr noundef nonnull %.090) #5
  %40 = tail call ptr @BN_CTX_get(ptr noundef nonnull %.090) #5
  %41 = tail call ptr @BN_CTX_get(ptr noundef nonnull %.090) #5
  %42 = tail call ptr @BN_CTX_get(ptr noundef nonnull %.090) #5
  %43 = tail call ptr @BN_CTX_get(ptr noundef nonnull %.090) #5
  %44 = icmp eq ptr %43, null
  br i1 %44, label %81, label %45

45:                                               ; preds = %39
  br i1 %17, label %51, label %46

46:                                               ; preds = %45
  %47 = tail call i32 %34(ptr noundef nonnull %0, ptr noundef nonnull %43, ptr noundef nonnull %15, ptr noundef nonnull %.090) #5
  %.not101 = icmp eq i32 %47, 0
  br i1 %.not101, label %81, label %48

48:                                               ; preds = %46
  %49 = getelementptr inbounds nuw i8, ptr %1, i64 8
  %50 = tail call i32 %32(ptr noundef nonnull %0, ptr noundef %40, ptr noundef nonnull %49, ptr noundef nonnull %43, ptr noundef nonnull %.090) #5
  %.not102 = icmp eq i32 %50, 0
  br i1 %.not102, label %81, label %53

51:                                               ; preds = %45
  %52 = getelementptr inbounds nuw i8, ptr %1, i64 8
  br label %53

53:                                               ; preds = %48, %51
  %.094 = phi ptr [ %52, %51 ], [ %40, %48 ]
  br i1 %14, label %59, label %54

54:                                               ; preds = %53
  %55 = tail call i32 %34(ptr noundef nonnull %0, ptr noundef %42, ptr noundef nonnull %11, ptr noundef nonnull %.090) #5
  %.not103 = icmp eq i32 %55, 0
  br i1 %.not103, label %81, label %56

56:                                               ; preds = %54
  %57 = getelementptr inbounds nuw i8, ptr %2, i64 8
  %58 = tail call i32 %32(ptr noundef nonnull %0, ptr noundef %41, ptr noundef nonnull %57, ptr noundef %42, ptr noundef nonnull %.090) #5
  %.not104 = icmp eq i32 %58, 0
  br i1 %.not104, label %81, label %61

59:                                               ; preds = %53
  %60 = getelementptr inbounds nuw i8, ptr %2, i64 8
  br label %61

61:                                               ; preds = %56, %59
  %.092 = phi ptr [ %60, %59 ], [ %41, %56 ]
  %62 = tail call i32 @BN_cmp(ptr noundef %.094, ptr noundef %.092) #5
  %.not105 = icmp eq i32 %62, 0
  br i1 %.not105, label %63, label %81

63:                                               ; preds = %61
  br i1 %17, label %69, label %64

64:                                               ; preds = %63
  %65 = tail call i32 %32(ptr noundef nonnull %0, ptr noundef nonnull %43, ptr noundef nonnull %43, ptr noundef nonnull %15, ptr noundef nonnull %.090) #5
  %.not106 = icmp eq i32 %65, 0
  br i1 %.not106, label %81, label %66

66:                                               ; preds = %64
  %67 = getelementptr inbounds nuw i8, ptr %1, i64 32
  %68 = tail call i32 %32(ptr noundef nonnull %0, ptr noundef %40, ptr noundef nonnull %67, ptr noundef nonnull %43, ptr noundef nonnull %.090) #5
  %.not107 = icmp eq i32 %68, 0
  br i1 %.not107, label %81, label %71

69:                                               ; preds = %63
  %70 = getelementptr inbounds nuw i8, ptr %1, i64 32
  br label %71

71:                                               ; preds = %66, %69
  %.195 = phi ptr [ %70, %69 ], [ %.094, %66 ]
  br i1 %14, label %77, label %72

72:                                               ; preds = %71
  %73 = tail call i32 %32(ptr noundef nonnull %0, ptr noundef %42, ptr noundef %42, ptr noundef nonnull %11, ptr noundef nonnull %.090) #5
  %.not108 = icmp eq i32 %73, 0
  br i1 %.not108, label %81, label %74

74:                                               ; preds = %72
  %75 = getelementptr inbounds nuw i8, ptr %2, i64 32
  %76 = tail call i32 %32(ptr noundef nonnull %0, ptr noundef %41, ptr noundef nonnull %75, ptr noundef %42, ptr noundef nonnull %.090) #5
  %.not109 = icmp eq i32 %76, 0
  br i1 %.not109, label %81, label %79

77:                                               ; preds = %71
  %78 = getelementptr inbounds nuw i8, ptr %2, i64 32
  br label %79

79:                                               ; preds = %74, %77
  %.193 = phi ptr [ %78, %77 ], [ %.092, %74 ]
  %80 = tail call i32 @BN_cmp(ptr noundef %.195, ptr noundef %.193) #5
  %.not110 = icmp ne i32 %80, 0
  %. = zext i1 %.not110 to i32
  br label %81

81:                                               ; preds = %79, %61, %72, %74, %64, %66, %54, %56, %46, %48, %39
  %.091 = phi i32 [ -1, %39 ], [ -1, %74 ], [ -1, %72 ], [ -1, %66 ], [ -1, %64 ], [ -1, %56 ], [ -1, %54 ], [ -1, %48 ], [ -1, %46 ], [ 1, %61 ], [ %., %79 ]
  tail call void @BN_CTX_end(ptr noundef nonnull %.090) #5
  tail call void @BN_CTX_free(ptr noundef %.096) #5
  br label %82

82:                                               ; preds = %81, %23, %18, %36, %9, %7
  %.0 = phi i32 [ %8, %7 ], [ 1, %9 ], [ %.091, %81 ], [ 1, %18 ], [ %28, %23 ], [ -1, %36 ]
  ret i32 %.0
}